target datalayout = "e-m:e-p270:32:32-p271:32:32-p272:64:64-i64:64-i128:128-f80:128-n8:16:32:64-S128"
target triple = "x86_64-pc-linux-gnu"

@.str.5 = private unnamed_addr constant [6 x i8] c"FILE*\00", align 1
@.str.16 = private unnamed_addr constant [29 x i8] c"attempt to use a closed file\00", align 1

; Function Attrs: nounwind uwtable
define internal void @aux_lines(ptr noundef %0, i32 noundef %1, i32 noundef %2) #0 {
  %4 = alloca ptr, align 8
  %5 = alloca i32, align 4
  %6 = alloca i32, align 4
  store ptr %0, ptr %4, align 8, !tbaa !4
  store i32 %1, ptr %5, align 4, !tbaa !14
  store i32 %2, ptr %6, align 4, !tbaa !14
  %7 = load ptr, ptr %4, align 8, !tbaa !4
  %8 = load i32, ptr %5, align 4, !tbaa !14
  call void @lua_pushvalue(ptr noundef %7, i32 noundef %8)
  %9 = load ptr, ptr %4, align 8, !tbaa !4
  %10 = load i32, ptr %6, align 4, !tbaa !14
  call void @lua_pushboolean(ptr noundef %9, i32 noundef %10)
  %11 = load ptr, ptr %4, align 8, !tbaa !4
  call void @lua_pushcclosure(ptr noundef %11, ptr noundef @io_readline, i32 noundef 2)
  ret void
}

; Function Attrs: nounwind uwtable
define internal ptr @tofile(ptr noundef %0) #0 {
  %2 = alloca ptr, align 8
  %3 = alloca ptr, align 8
  store ptr %0, ptr %2, align 8, !tbaa !4
  call void @llvm.lifetime.start.p0(i64 8, ptr %3) #6
  %4 = load ptr, ptr %2, align 8, !tbaa !4
  %5 = call ptr @luaL_checkudata(ptr noundef %4, i32 noundef 1, ptr noundef @.str.5)
  store ptr %5, ptr %3, align 8, !tbaa !12
  %6 = load ptr, ptr %3, align 8, !tbaa !12
  %7 = load ptr, ptr %6, align 8, !tbaa !9
  %8 = icmp eq ptr %7, null
  br i1 %8, label %9, label %12

9:                                                ; preds = %1
  %10 = load ptr, ptr %2, align 8, !tbaa !4
  %11 = call i32 (ptr, ptr, ...) @luaL_error(ptr noundef %10, ptr noundef @.str.16)
  br label %12

12:                                               ; preds = %9, %1
  %13 = load ptr, ptr %3, align 8, !tbaa !12
  %14 = load ptr, ptr %13, align 8, !tbaa !9
  call void @llvm.lifetime.end.p0(i64 8, ptr %3) #6
  ret ptr %14
}

; Function Attrs: nounwind uwtable
define internal i32 @f_lines(ptr noundef %0) #0 {
  %2 = alloca ptr, align 8
  store ptr %0, ptr %2, align 8, !tbaa !4
  %3 = load ptr, ptr %2, align 8, !tbaa !4
  %4 = call ptr @tofile(ptr noundef %3)
  %5 = load ptr, ptr %2, align 8, !tbaa !4
  call void @aux_lines(ptr noundef %5, i32 noundef 1, i32 noundef 0)
  ret i32 1
}