; Function Attrs: nounwind uwtable
define internal noundef i32 @f_lines(ptr noundef %0) #0 {
  %2 = tail call ptr @luaL_checkudata(ptr noundef %0, i32 noundef 1, ptr noundef nonnull @.str.5) #9
  %3 = load ptr, ptr %2, align 8, !tbaa !4
  %4 = icmp eq ptr %3, null
  br i1 %4, label %5, label %tofile.exit

5:                                                ; preds = %1
  %6 = tail call i32 (ptr, ptr, ...) @luaL_error(ptr noundef %0, ptr noundef nonnull @.str.16) #9
  br label %tofile.exit

tofile.exit:                                      ; preds = %1, %5
  tail call void @lua_pushvalue(ptr noundef %0, i32 noundef 1) #9
  tail call void @lua_pushboolean(ptr noundef %0, i32 noundef 0) #9
  tail call void @lua_pushcclosure(ptr noundef %0, ptr noundef nonnull @io_readline, i32 noundef 2) #9
  ret i32 1
}